; Function Attrs: mustprogress uwtable
define void @_ZN13ProfileDialog16selectionChangedEv(ptr nocapture noundef nonnull readonly align 8 dereferenceable(120) %0) #0 align 2 personality ptr @__gxx_personality_v0 {
  %2 = alloca %class.QList.10, align 8
  call void @_ZN13ProfileDialog16selectedProfilesEv(ptr dead_on_unwind nonnull writable sret(%class.QList.10) align 8 %2, ptr noundef nonnull align 8 dereferenceable(120) %0)
  %3 = getelementptr inbounds i8, ptr %2, i64 16
  %4 = load i64, ptr %3, align 8
  %5 = icmp eq i64 %4, 0
  %6 = load ptr, ptr %2, align 8
  %.not.i.i.i = icmp eq ptr %6, null
  br i1 %.not.i.i.i, label %_ZN5QListI11QModelIndexED2Ev.exit, label %_ZN17QArrayDataPointerI11QModelIndexE5derefEv.exit.i.i

_ZN17QArrayDataPointerI11QModelIndexE5derefEv.exit.i.i: ; preds = %1
  %7 = atomicrmw sub ptr %6, i32 1 seq_cst, align 4
  %.not.i.i = icmp eq i32 %7, 1
  br i1 %.not.i.i, label %8, label %_ZN5QListI11QModelIndexED2Ev.exit

8:                                                ; preds = %_ZN17QArrayDataPointerI11QModelIndexE5derefEv.exit.i.i
  %9 = load ptr, ptr %2, align 8
  call void @_ZN10QArrayData10deallocateEPS_xx(ptr noundef %9, i64 noundef 24, i64 noundef 8) #17
  br label %_ZN5QListI11QModelIndexED2Ev.exit

_ZN5QListI11QModelIndexED2Ev.exit:                ; preds = %1, %_ZN17QArrayDataPointerI11QModelIndexE5derefEv.exit.i.i, %8
  br i1 %5, label %10, label %15

10:                                               ; preds = %_ZN5QListI11QModelIndexED2Ev.exit
  %11 = getelementptr inbounds i8, ptr %0, i64 64
  %12 = load ptr, ptr %11, align 8
  %13 = getelementptr inbounds i8, ptr %12, i64 32
  %14 = load ptr, ptr %13, align 8
  call void @_ZN15ProfileTreeView9selectRowEi(ptr noundef nonnull align 8 dereferenceable(48) %14, i32 noundef 0)
  br label %15

15:                                               ; preds = %10, %_ZN5QListI11QModelIndexED2Ev.exit
  call void @_ZN13ProfileDialog13updateWidgetsEv(ptr noundef nonnull align 8 dereferenceable(120) %0)
  ret void
}